target datalayout = "e-m:e-p270:32:32-p271:32:32-p272:64:64-i64:64-i128:128-f80:128-n8:16:32:64-S128"
target triple = "x86_64-pc-linux-gnu"

%struct.Texture = type { i32, i32, i32, i32, i32 }
%struct.Rectangle = type { float, float, float, float }
%struct.Color = type { i8, i8, i8, i8 }
%struct.Vector2 = type { float, float }

@texShapes = internal global %struct.Texture { i32 1, i32 1, i32 1, i32 1, i32 7 }, align 4
@texShapesRec = internal global %struct.Rectangle { float 0.000000e+00, float 0.000000e+00, float 1.000000e+00, float 1.000000e+00 }, align 4

; Function Attrs: nounwind uwtable
define { <2 x float>, <2 x float> } @GetShapesTextureRectangle() #2 {
  %1 = alloca %struct.Rectangle, align 4
  call void @llvm.memcpy.p0.p0.i64(ptr align 4 %1, ptr align 4 @texShapesRec, i64 16, i1 false)
  %2 = load { <2 x float>, <2 x float> }, ptr %1, align 4
  ret { <2 x float>, <2 x float> } %2
}

; Function Attrs: nounwind uwtable
define void @GetShapesTexture(ptr dead_on_unwind noalias writable sret(%struct.Texture) align 4 %0) #2 {
  call void @llvm.memcpy.p0.p0.i64(ptr align 4 %0, ptr align 4 @texShapes, i64 20, i1 false)
  ret void
}

; Function Attrs: nounwind uwtable
define void @DrawPixelV(<2 x float> %0, i32 %1) #0 {
  %3 = alloca %struct.Vector2, align 4
  %4 = alloca %struct.Color, align 1
  %5 = alloca %struct.Texture, align 4
  %6 = alloca %struct.Rectangle, align 4
  store <2 x float> %0, ptr %3, align 4
  store i32 %1, ptr %4, align 1
  call void @GetShapesTexture(ptr dead_on_unwind writable sret(%struct.Texture) align 4 %5)
  %7 = getelementptr inbounds nuw %struct.Texture, ptr %5, i32 0, i32 0
  %8 = load i32, ptr %7, align 4
  call void @rlSetTexture(i32 noundef %8)
  call void @llvm.lifetime.start.p0(i64 16, ptr %6) #8
  %9 = call { <2 x float>, <2 x float> } @GetShapesTextureRectangle()
  %10 = getelementptr inbounds nuw { <2 x float>, <2 x float> }, ptr %6, i32 0, i32 0
  %11 = extractvalue { <2 x float>, <2 x float> } %9, 0
  store <2 x float> %11, ptr %10, align 4
  %12 = getelementptr inbounds nuw { <2 x float>, <2 x float> }, ptr %6, i32 0, i32 1
  %13 = extractvalue { <2 x float>, <2 x float> } %9, 1
  store <2 x float> %13, ptr %12, align 4
  call void @rlBegin(i32 noundef 7)
  call void @rlNormal3f(float noundef 0.000000e+00, float noundef 0.000000e+00, float noundef 1.000000e+00)
  %14 = getelementptr inbounds nuw %struct.Color, ptr %4, i32 0, i32 0
  %15 = load i8, ptr %14, align 1
  %16 = getelementptr inbounds nuw %struct.Color, ptr %4, i32 0, i32 1
  %17 = load i8, ptr %16, align 1
  %18 = getelementptr inbounds nuw %struct.Color, ptr %4, i32 0, i32 2
  %19 = load i8, ptr %18, align 1
  %20 = getelementptr inbounds nuw %struct.Color, ptr %4, i32 0, i32 3
  %21 = load i8, ptr %20, align 1
  call void @rlColor4ub(i8 noundef zeroext %15, i8 noundef zeroext %17, i8 noundef zeroext %19, i8 noundef zeroext %21)
  %22 = getelementptr inbounds nuw %struct.Rectangle, ptr %6, i32 0, i32 0
  %23 = load float, ptr %22, align 4
  %24 = load i32, ptr getelementptr inbounds nuw (%struct.Texture, ptr @texShapes, i32 0, i32 1), align 4
  %25 = sitofp i32 %24 to float
  %26 = fdiv float %23, %25
  %27 = getelementptr inbounds nuw %struct.Rectangle, ptr %6, i32 0, i32 1
  %28 = load float, ptr %27, align 4
  %29 = load i32, ptr getelementptr inbounds nuw (%struct.Texture, ptr @texShapes, i32 0, i32 2), align 4
  %30 = sitofp i32 %29 to float
  %31 = fdiv float %28, %30
  call void @rlTexCoord2f(float noundef %26, float noundef %31)
  %32 = getelementptr inbounds nuw %struct.Vector2, ptr %3, i32 0, i32 0
  %33 = load float, ptr %32, align 4
  %34 = getelementptr inbounds nuw %struct.Vector2, ptr %3, i32 0, i32 1
  %35 = load float, ptr %34, align 4
  call void @rlVertex2f(float noundef %33, float noundef %35)
  %36 = getelementptr inbounds nuw %struct.Rectangle, ptr %6, i32 0, i32 0
  %37 = load float, ptr %36, align 4
  %38 = load i32, ptr getelementptr inbounds nuw (%struct.Texture, ptr @texShapes, i32 0, i32 1), align 4
  %39 = sitofp i32 %38 to float
  %40 = fdiv float %37, %39
  %41 = getelementptr inbounds nuw %struct.Rectangle, ptr %6, i32 0, i32 1
  %42 = load float, ptr %41, align 4
  %43 = getelementptr inbounds nuw %struct.Rectangle, ptr %6, i32 0, i32 3
  %44 = load float, ptr %43, align 4
  %45 = fadd float %42, %44
  %46 = load i32, ptr getelementptr inbounds nuw (%struct.Texture, ptr @texShapes, i32 0, i32 2), align 4
  %47 = sitofp i32 %46 to float
  %48 = fdiv float %45, %47
  call void @rlTexCoord2f(float noundef %40, float noundef %48)
  %49 = getelementptr inbounds nuw %struct.Vector2, ptr %3, i32 0, i32 0
  %50 = load float, ptr %49, align 4
  %51 = getelementptr inbounds nuw %struct.Vector2, ptr %3, i32 0, i32 1
  %52 = load float, ptr %51, align 4
  %53 = fadd float %52, 1.000000e+00
  call void @rlVertex2f(float noundef %50, float noundef %53)
  %54 = getelementptr inbounds nuw %struct.Rectangle, ptr %6, i32 0, i32 0
  %55 = load float, ptr %54, align 4
  %56 = getelementptr inbounds nuw %struct.Rectangle, ptr %6, i32 0, i32 2
  %57 = load float, ptr %56, align 4
  %58 = fadd float %55, %57
  %59 = load i32, ptr getelementptr inbounds nuw (%struct.Texture, ptr @texShapes, i32 0, i32 1), align 4
  %60 = sitofp i32 %59 to float
  %61 = fdiv float %58, %60
  %62 = getelementptr inbounds nuw %struct.Rectangle, ptr %6, i32 0, i32 1
  %63 = load float, ptr %62, align 4
  %64 = getelementptr inbounds nuw %struct.Rectangle, ptr %6, i32 0, i32 3
  %65 = load float, ptr %64, align 4
  %66 = fadd float %63, %65
  %67 = load i32, ptr getelementptr inbounds nuw (%struct.Texture, ptr @texShapes, i32 0, i32 2), align 4
  %68 = sitofp i32 %67 to float
  %69 = fdiv float %66, %68
  call void @rlTexCoord2f(float noundef %61, float noundef %69)
  %70 = getelementptr inbounds nuw %struct.Vector2, ptr %3, i32 0, i32 0
  %71 = load float, ptr %70, align 4
  %72 = fadd float %71, 1.000000e+00
  %73 = getelementptr inbounds nuw %struct.Vector2, ptr %3, i32 0, i32 1
  %74 = load float, ptr %73, align 4
  %75 = fadd float %74, 1.000000e+00
  call void @rlVertex2f(float noundef %72, float noundef %75)
  %76 = getelementptr inbounds nuw %struct.Rectangle, ptr %6, i32 0, i32 0
  %77 = load float, ptr %76, align 4
  %78 = getelementptr inbounds nuw %struct.Rectangle, ptr %6, i32 0, i32 2
  %79 = load float, ptr %78, align 4
  %80 = fadd float %77, %79
  %81 = load i32, ptr getelementptr inbounds nuw (%struct.Texture, ptr @texShapes, i32 0, i32 1), align 4
  %82 = sitofp i32 %81 to float
  %83 = fdiv float %80, %82
  %84 = getelementptr inbounds nuw %struct.Rectangle, ptr %6, i32 0, i32 1
  %85 = load float, ptr %84, align 4
  %86 = load i32, ptr getelementptr inbounds nuw (%struct.Texture, ptr @texShapes, i32 0, i32 2), align 4
  %87 = sitofp i32 %86 to float
  %88 = fdiv float %85, %87
  call void @rlTexCoord2f(float noundef %83, float noundef %88)
  %89 = getelementptr inbounds nuw %struct.Vector2, ptr %3, i32 0, i32 0
  %90 = load float, ptr %89, align 4
  %91 = fadd float %90, 1.000000e+00
  %92 = getelementptr inbounds nuw %struct.Vector2, ptr %3, i32 0, i32 1
  %93 = load float, ptr %92, align 4
  call void @rlVertex2f(float noundef %91, float noundef %93)
  call void @rlEnd()
  call void @rlSetTexture(i32 noundef 0)
  call void @llvm.lifetime.end.p0(i64 16, ptr %6) #8
  ret void
}