; Function Attrs: nounwind uwtable
define void @DrawPixelV(<2 x float> %0, i32 %1) local_unnamed_addr #4 {
  %.sroa.017.0.extract.trunc = trunc i32 %1 to i8
  %.sroa.2.0.extract.shift = lshr i32 %1, 8
  %.sroa.2.0.extract.trunc = trunc i32 %.sroa.2.0.extract.shift to i8
  %.sroa.3.0.extract.shift = lshr i32 %1, 16
  %.sroa.3.0.extract.trunc = trunc i32 %.sroa.3.0.extract.shift to i8
  %.sroa.4.0.extract.shift = lshr i32 %1, 24
  %.sroa.4.0.extract.trunc = trunc nuw i32 %.sroa.4.0.extract.shift to i8
  %.sroa.0.0.copyload = load i32, ptr @texShapes, align 4
  tail call void @rlSetTexture(i32 noundef %.sroa.0.0.copyload) #16
  %.sroa.0.0.copyload.i = load <2 x float>, ptr @texShapesRec, align 8
  %.sroa.2.0.copyload.i = load <2 x float>, ptr getelementptr inbounds nuw (i8, ptr @texShapesRec, i64 8), align 8
  tail call void @rlBegin(i32 noundef 7) #16
  tail call void @rlNormal3f(float noundef 0.000000e+00, float noundef 0.000000e+00, float noundef 1.000000e+00) #16
  tail call void @rlColor4ub(i8 noundef zeroext %.sroa.017.0.extract.trunc, i8 noundef zeroext %.sroa.2.0.extract.trunc, i8 noundef zeroext %.sroa.3.0.extract.trunc, i8 noundef zeroext %.sroa.4.0.extract.trunc) #16
  %.sroa.0.0.vec.extract = extractelement <2 x float> %.sroa.0.0.copyload.i, i64 0
  %3 = load i32, ptr getelementptr inbounds nuw (i8, ptr @texShapes, i64 4), align 4
  %4 = sitofp i32 %3 to float
  %5 = fdiv float %.sroa.0.0.vec.extract, %4
  %.sroa.0.4.vec.extract = extractelement <2 x float> %.sroa.0.0.copyload.i, i64 1
  %6 = load i32, ptr getelementptr inbounds nuw (i8, ptr @texShapes, i64 8), align 4
  %7 = sitofp i32 %6 to float
  %8 = fdiv float %.sroa.0.4.vec.extract, %7
  tail call void @rlTexCoord2f(float noundef %5, float noundef %8) #16
  %.sroa.018.0.vec.extract = extractelement <2 x float> %0, i64 0
  %.sroa.018.4.vec.extract = extractelement <2 x float> %0, i64 1
  tail call void @rlVertex2f(float noundef %.sroa.018.0.vec.extract, float noundef %.sroa.018.4.vec.extract) #16
  %9 = load i32, ptr getelementptr inbounds nuw (i8, ptr @texShapes, i64 4), align 4
  %10 = sitofp i32 %9 to float
  %11 = fdiv float %.sroa.0.0.vec.extract, %10
  %12 = fadd <2 x float> %.sroa.0.0.copyload.i, %.sroa.2.0.copyload.i
  %13 = extractelement <2 x float> %12, i64 1
  %14 = load i32, ptr getelementptr inbounds nuw (i8, ptr @texShapes, i64 8), align 4
  %15 = sitofp i32 %14 to float
  %16 = fdiv float %13, %15
  tail call void @rlTexCoord2f(float noundef %11, float noundef %16) #16
  %17 = fadd float %.sroa.018.4.vec.extract, 1.000000e+00
  tail call void @rlVertex2f(float noundef %.sroa.018.0.vec.extract, float noundef %17) #16
  %18 = fadd <2 x float> %.sroa.0.0.copyload.i, %.sroa.2.0.copyload.i
  %19 = extractelement <2 x float> %18, i64 0
  %20 = load i32, ptr getelementptr inbounds nuw (i8, ptr @texShapes, i64 4), align 4
  %21 = sitofp i32 %20 to float
  %22 = fdiv float %19, %21
  %23 = load i32, ptr getelementptr inbounds nuw (i8, ptr @texShapes, i64 8), align 4
  %24 = sitofp i32 %23 to float
  %25 = fdiv float %13, %24
  tail call void @rlTexCoord2f(float noundef %22, float noundef %25) #16
  %26 = fadd float %.sroa.018.0.vec.extract, 1.000000e+00
  tail call void @rlVertex2f(float noundef %26, float noundef %17) #16
  %27 = load i32, ptr getelementptr inbounds nuw (i8, ptr @texShapes, i64 4), align 4
  %28 = sitofp i32 %27 to float
  %29 = fdiv float %19, %28
  %30 = load i32, ptr getelementptr inbounds nuw (i8, ptr @texShapes, i64 8), align 4
  %31 = sitofp i32 %30 to float
  %32 = fdiv float %.sroa.0.4.vec.extract, %31
  tail call void @rlTexCoord2f(float noundef %29, float noundef %32) #16
  tail call void @rlVertex2f(float noundef %26, float noundef %.sroa.018.4.vec.extract) #16
  tail call void @rlEnd() #16
  tail call void @rlSetTexture(i32 noundef 0) #16
  ret void
}